target datalayout = "e-m:e-p270:32:32-p271:32:32-p272:64:64-i64:64-i128:128-f80:128-n8:16:32:64-S128"
target triple = "x86_64-pc-linux-gnu"

%"class.duckdb::unique_ptr.66" = type { %"class.std::unique_ptr.67" }
%"class.std::unique_ptr.67" = type { %"struct.std::__uniq_ptr_data.68" }
%"struct.std::__uniq_ptr_data.68" = type { %"class.std::__uniq_ptr_impl.69" }
%"class.std::__uniq_ptr_impl.69" = type { %"class.std::tuple.70" }
%"class.std::tuple.70" = type { %"struct.std::_Tuple_impl.71" }
%"struct.std::_Tuple_impl.71" = type { %"struct.std::_Head_base.74" }
%"struct.std::_Head_base.74" = type { ptr }
%"class.duckdb::ParquetBloomFilter" = type { %"class.duckdb::unique_ptr.66", i64 }
%"class.duckdb::ByteBuffer" = type { ptr, i64 }
%"struct.duckdb::ParquetBloomBlock" = type { [8 x i32] }
%"struct.duckdb::ParquetBloomBlock::ParquetBloomMaskResult" = type { [8 x i8] }

@_ZZN6duckdb17ParquetBloomBlock4MaskEjE18parquet_bloom_salt = linkonce_odr constant [8 x i32] [i32 1203114875, i32 1150766481, i32 -2010862245, i32 -1565054819, i32 1884591559, i32 770785867, i32 -1627633337, i32 1550580529], comdat, align 16

; Function Attrs: inlinehint mustprogress nounwind uwtable
define linkonce_odr void @_ZN6duckdb17ParquetBloomBlock22ParquetBloomMaskResultC2Ev(ptr noundef nonnull align 1 dereferenceable(8) %0) unnamed_addr #7 comdat align 2 {
  %2 = alloca ptr, align 8
  store ptr %0, ptr %2, align 8, !tbaa !443
  %3 = load ptr, ptr %2, align 8
  %4 = getelementptr inbounds nuw %"struct.duckdb::ParquetBloomBlock::ParquetBloomMaskResult", ptr %3, i32 0, i32 0
  store i8 0, ptr %4, align 1, !tbaa !42
  %5 = getelementptr inbounds i8, ptr %4, i64 1
  %6 = getelementptr inbounds i8, ptr %4, i64 8
  br label %7

7:                                                ; preds = %7, %1
  %8 = phi ptr [ %5, %1 ], [ %9, %7 ]
  store i8 0, ptr %8, align 1, !tbaa !42
  %9 = getelementptr inbounds i8, ptr %8, i64 1
  %10 = icmp eq ptr %9, %6
  br i1 %10, label %11, label %7

11:                                               ; preds = %7
  ret void
}

; Function Attrs: mustprogress nounwind uwtable
define linkonce_odr noundef zeroext i1 @_ZN6duckdb17ParquetBloomBlock9check_bitERjh(ptr noundef nonnull align 4 dereferenceable(4) %0, i8 noundef zeroext %1) #6 comdat align 2 {
  %3 = alloca ptr, align 8
  %4 = alloca i8, align 1
  store ptr %0, ptr %3, align 8, !tbaa !223
  store i8 %1, ptr %4, align 1, !tbaa !42
  %5 = load ptr, ptr %3, align 8, !tbaa !223
  %6 = load i32, ptr %5, align 4, !tbaa !44
  %7 = load i8, ptr %4, align 1, !tbaa !42
  %8 = zext i8 %7 to i32
  %9 = lshr i32 %6, %8
  %10 = and i32 %9, 1
  %11 = icmp ne i32 %10, 0
  ret i1 %11
}

; Function Attrs: mustprogress nounwind uwtable
define linkonce_odr i64 @_ZN6duckdb17ParquetBloomBlock4MaskEj(i32 noundef %0) #6 comdat align 2 {
  %2 = alloca %"struct.duckdb::ParquetBloomBlock::ParquetBloomMaskResult", align 1
  %3 = alloca i32, align 4
  %4 = alloca i64, align 8
  store i32 %0, ptr %3, align 4, !tbaa !44
  call void @_ZN6duckdb17ParquetBloomBlock22ParquetBloomMaskResultC2Ev(ptr noundef nonnull align 1 dereferenceable(8) %2) #3
  call void @llvm.lifetime.start.p0(i64 8, ptr %4) #3
  store i64 0, ptr %4, align 8, !tbaa !43
  br label %5

5:                                                ; preds = %20, %1
  %6 = load i64, ptr %4, align 8, !tbaa !43
  %7 = icmp ult i64 %6, 8
  br i1 %7, label %9, label %8

8:                                                ; preds = %5
  call void @llvm.lifetime.end.p0(i64 8, ptr %4) #3
  br label %23

9:                                                ; preds = %5
  %10 = load i32, ptr %3, align 4, !tbaa !44
  %11 = load i64, ptr %4, align 8, !tbaa !43
  %12 = getelementptr inbounds nuw [8 x i32], ptr @_ZZN6duckdb17ParquetBloomBlock4MaskEjE18parquet_bloom_salt, i64 0, i64 %11
  %13 = load i32, ptr %12, align 4, !tbaa !44
  %14 = mul i32 %10, %13
  %15 = lshr i32 %14, 27
  %16 = trunc i32 %15 to i8
  %17 = getelementptr inbounds nuw %"struct.duckdb::ParquetBloomBlock::ParquetBloomMaskResult", ptr %2, i32 0, i32 0
  %18 = load i64, ptr %4, align 8, !tbaa !43
  %19 = getelementptr inbounds nuw [8 x i8], ptr %17, i64 0, i64 %18
  store i8 %16, ptr %19, align 1, !tbaa !42
  br label %20

20:                                               ; preds = %9
  %21 = load i64, ptr %4, align 8, !tbaa !43
  %22 = add i64 %21, 1
  store i64 %22, ptr %4, align 8, !tbaa !43
  br label %5, !llvm.loop !442

23:                                               ; preds = %8
  %24 = getelementptr inbounds nuw %"struct.duckdb::ParquetBloomBlock::ParquetBloomMaskResult", ptr %2, i32 0, i32 0
  %25 = load i64, ptr %24, align 1
  ret i64 %25
}

; Function Attrs: mustprogress uwtable
define linkonce_odr noundef zeroext i1 @_ZN6duckdb17ParquetBloomBlock10BlockCheckERS0_j(ptr noundef nonnull align 4 dereferenceable(32) %0, i32 noundef %1) #4 comdat align 2 {
  %3 = alloca i1, align 1
  %4 = alloca ptr, align 8
  %5 = alloca i32, align 4
  %6 = alloca %"struct.duckdb::ParquetBloomBlock::ParquetBloomMaskResult", align 1
  %7 = alloca i64, align 8
  %8 = alloca i32, align 4
  store ptr %0, ptr %4, align 8, !tbaa !259
  store i32 %1, ptr %5, align 4, !tbaa !44
  call void @llvm.lifetime.start.p0(i64 8, ptr %6) #3
  %9 = load i32, ptr %5, align 4, !tbaa !44
  %10 = call i64 @_ZN6duckdb17ParquetBloomBlock4MaskEj(i32 noundef %9)
  %11 = getelementptr inbounds nuw %"struct.duckdb::ParquetBloomBlock::ParquetBloomMaskResult", ptr %6, i32 0, i32 0
  store i64 %10, ptr %11, align 1
  call void @llvm.lifetime.start.p0(i64 8, ptr %7) #3
  store i64 0, ptr %7, align 8, !tbaa !43
  br label %12

12:                                               ; preds = %28, %2
  %13 = load i64, ptr %7, align 8, !tbaa !43
  %14 = icmp ult i64 %13, 8
  br i1 %14, label %16, label %15

15:                                               ; preds = %12
  store i32 2, ptr %8, align 4
  br label %31

16:                                               ; preds = %12
  %17 = load ptr, ptr %4, align 8, !tbaa !259
  %18 = getelementptr inbounds nuw %"struct.duckdb::ParquetBloomBlock", ptr %17, i32 0, i32 0
  %19 = load i64, ptr %7, align 8, !tbaa !43
  %20 = getelementptr inbounds nuw [8 x i32], ptr %18, i64 0, i64 %19
  %21 = getelementptr inbounds nuw %"struct.duckdb::ParquetBloomBlock::ParquetBloomMaskResult", ptr %6, i32 0, i32 0
  %22 = load i64, ptr %7, align 8, !tbaa !43
  %23 = getelementptr inbounds nuw [8 x i8], ptr %21, i64 0, i64 %22
  %24 = load i8, ptr %23, align 1, !tbaa !42
  %25 = call noundef zeroext i1 @_ZN6duckdb17ParquetBloomBlock9check_bitERjh(ptr noundef nonnull align 4 dereferenceable(4) %20, i8 noundef zeroext %24)
  br i1 %25, label %27, label %26

26:                                               ; preds = %16
  store i1 false, ptr %3, align 1
  store i32 1, ptr %8, align 4
  br label %31

27:                                               ; preds = %16
  br label %28

28:                                               ; preds = %27
  %29 = load i64, ptr %7, align 8, !tbaa !43
  %30 = add i64 %29, 1
  store i64 %30, ptr %7, align 8, !tbaa !43
  br label %12, !llvm.loop !262

31:                                               ; preds = %26, %15
  call void @llvm.lifetime.end.p0(i64 8, ptr %7) #3
  %32 = load i32, ptr %8, align 4
  switch i32 %32, label %34 [
    i32 2, label %33
  ]

33:                                               ; preds = %31
  store i1 true, ptr %3, align 1
  store i32 1, ptr %8, align 4
  br label %34

34:                                               ; preds = %33, %31
  call void @llvm.lifetime.end.p0(i64 8, ptr %6) #3
  %35 = load i1, ptr %3, align 1
  ret i1 %35
}

; Function Attrs: mustprogress uwtable
define noundef zeroext i1 @_ZN6duckdb18ParquetBloomFilter11FilterCheckEm(ptr noundef nonnull align 8 dereferenceable(16) %0, i64 noundef %1) #4 align 2 {
  %3 = alloca ptr, align 8
  %4 = alloca i64, align 8
  %5 = alloca ptr, align 8
  %6 = alloca i64, align 8
  store ptr %0, ptr %3, align 8, !tbaa !244
  store i64 %1, ptr %4, align 8, !tbaa !43
  %7 = load ptr, ptr %3, align 8
  call void @llvm.lifetime.start.p0(i64 8, ptr %5) #3
  %8 = getelementptr inbounds nuw %"class.duckdb::ParquetBloomFilter", ptr %7, i32 0, i32 0
  %9 = call noundef ptr @_ZNK6duckdb10unique_ptrINS_16ResizeableBufferESt14default_deleteIS1_ELb1EEptEv(ptr noundef nonnull align 8 dereferenceable(8) %8)
  %10 = getelementptr inbounds nuw %"class.duckdb::ByteBuffer", ptr %9, i32 0, i32 0
  %11 = load ptr, ptr %10, align 8, !tbaa !163
  store ptr %11, ptr %5, align 8, !tbaa !259
  call void @llvm.lifetime.start.p0(i64 8, ptr %6) #3
  %12 = load i64, ptr %4, align 8, !tbaa !43
  %13 = lshr i64 %12, 32
  %14 = getelementptr inbounds nuw %"class.duckdb::ParquetBloomFilter", ptr %7, i32 0, i32 1
  %15 = load i64, ptr %14, align 8, !tbaa !247
  %16 = mul i64 %13, %15
  %17 = lshr i64 %16, 32
  store i64 %17, ptr %6, align 8, !tbaa !43
  %18 = load ptr, ptr %5, align 8, !tbaa !259
  %19 = load i64, ptr %6, align 8, !tbaa !43
  %20 = getelementptr inbounds nuw %"struct.duckdb::ParquetBloomBlock", ptr %18, i64 %19
  %21 = load i64, ptr %4, align 8, !tbaa !43
  %22 = trunc i64 %21 to i32
  %23 = call noundef zeroext i1 @_ZN6duckdb17ParquetBloomBlock10BlockCheckERS0_j(ptr noundef nonnull align 4 dereferenceable(32) %20, i32 noundef %22)
  call void @llvm.lifetime.end.p0(i64 8, ptr %6) #3
  call void @llvm.lifetime.end.p0(i64 8, ptr %5) #3
  ret i1 %23
}