; Function Attrs: mustprogress uwtable
define noundef zeroext i1 @_ZN6duckdb18ParquetBloomFilter11FilterCheckEm(ptr noundef nonnull align 8 dereferenceable(16) %0, i64 noundef %1) local_unnamed_addr #3 align 2 {
  %3 = alloca %"struct.duckdb::ParquetBloomBlock::ParquetBloomMaskResult", align 8
  %4 = tail call noundef ptr @_ZNK6duckdb10unique_ptrINS_16ResizeableBufferESt14default_deleteIS1_ELb1EEptEv(ptr noundef nonnull align 8 dereferenceable(8) %0)
  %5 = load ptr, ptr %4, align 8, !tbaa !145
  %6 = lshr i64 %1, 32
  %7 = getelementptr inbounds nuw i8, ptr %0, i64 8
  %8 = load i64, ptr %7, align 8, !tbaa !194
  %9 = mul i64 %8, %6
  %10 = lshr i64 %9, 32
  %11 = trunc i64 %1 to i32
  call void @llvm.lifetime.start.p0(i64 8, ptr nonnull %3)
  store i64 0, ptr %3, align 8
  br label %12

12:                                               ; preds = %12, %2
  %.05.i.i = phi i64 [ 0, %2 ], [ %19, %12 ]
  %13 = getelementptr inbounds nuw [8 x i32], ptr @_ZZN6duckdb17ParquetBloomBlock4MaskEjE18parquet_bloom_salt, i64 0, i64 %.05.i.i
  %14 = load i32, ptr %13, align 4, !tbaa !39
  %15 = mul i32 %14, %11
  %16 = lshr i32 %15, 27
  %17 = trunc nuw nsw i32 %16 to i8
  %18 = getelementptr inbounds nuw [8 x i8], ptr %3, i64 0, i64 %.05.i.i
  store i8 %17, ptr %18, align 1, !tbaa !12
  %19 = add nuw nsw i64 %.05.i.i, 1
  %exitcond.not.i.i = icmp eq i64 %19, 8
  br i1 %exitcond.not.i.i, label %_ZN6duckdb17ParquetBloomBlock4MaskEj.exit.i.preheader, label %12, !llvm.loop !203

_ZN6duckdb17ParquetBloomBlock4MaskEj.exit.i.preheader: ; preds = %12
  %20 = getelementptr inbounds nuw %"struct.duckdb::ParquetBloomBlock", ptr %5, i64 %10
  br label %_ZN6duckdb17ParquetBloomBlock4MaskEj.exit.i

_ZN6duckdb17ParquetBloomBlock4MaskEj.exit.i:      ; preds = %_ZN6duckdb17ParquetBloomBlock4MaskEj.exit.i.preheader, %_ZN6duckdb17ParquetBloomBlock4MaskEj.exit.i
  %.079.i = phi i64 [ %28, %_ZN6duckdb17ParquetBloomBlock4MaskEj.exit.i ], [ 0, %_ZN6duckdb17ParquetBloomBlock4MaskEj.exit.i.preheader ]
  %21 = getelementptr inbounds nuw [8 x i32], ptr %20, i64 0, i64 %.079.i
  %22 = getelementptr inbounds nuw [8 x i8], ptr %3, i64 0, i64 %.079.i
  %23 = load i8, ptr %22, align 1, !tbaa !12
  %24 = load i32, ptr %21, align 4, !tbaa !39
  %25 = zext nneg i8 %23 to i32
  %26 = shl nuw i32 1, %25
  %27 = and i32 %26, %24
  %.not.not.i = icmp ne i32 %27, 0
  %28 = add nuw nsw i64 %.079.i, 1
  %exitcond.i = icmp ne i64 %28, 8
  %or.cond.not.i = select i1 %.not.not.i, i1 %exitcond.i, i1 false
  br i1 %or.cond.not.i, label %_ZN6duckdb17ParquetBloomBlock4MaskEj.exit.i, label %_ZN6duckdb17ParquetBloomBlock10BlockCheckERS0_j.exit, !llvm.loop !204

_ZN6duckdb17ParquetBloomBlock10BlockCheckERS0_j.exit: ; preds = %_ZN6duckdb17ParquetBloomBlock4MaskEj.exit.i
  call void @llvm.lifetime.end.p0(i64 8, ptr nonnull %3)
  ret i1 %.not.not.i
}